target datalayout = "e-m:e-p270:32:32-p271:32:32-p272:64:64-i64:64-i128:128-f80:128-n8:16:32:64-S128"
target triple = "x86_64-pc-linux-gnu"

%struct.SDL_Camera = type { ptr, ptr, i32, %struct.SDL_AtomicInt, ptr, ptr, ptr, ptr, i32, %struct.SDL_CameraSpec, %struct.SDL_CameraSpec, i32, ptr, i32, i64, i64, ptr, ptr, [8 x %struct.SurfaceList], %struct.SurfaceList, %struct.SurfaceList, %struct.SurfaceList, ptr, i32, i8, %struct.SDL_AtomicInt, %struct.SDL_AtomicInt, ptr, i32, i32, ptr }
%struct.SDL_CameraSpec = type { i32, i32, i32, i32, i32, i32 }
%struct.SurfaceList = type { ptr, i64, ptr }
%struct.SDL_AtomicInt = type { i32 }
%struct.SDL_PrivateCameraData = type { i32, i32, i32, ptr, i32 }
%struct.buffer = type { ptr, i64, i32 }
%struct.timeval = type { i64, i64 }
%struct.v4l2_buffer = type { i32, i32, i32, i32, i32, %struct.timeval, %struct.v4l2_timecode, i32, i32, %union.anon.5, i32, i32, %union.anon.6 }
%struct.v4l2_timecode = type { i32, i32, i8, i8, i8, i8, [4 x i8] }
%union.anon.5 = type { i64 }
%union.anon.6 = type { i32 }

@.str.16 = private unnamed_addr constant [16 x i8] c"VIDIOC_QUERYBUF\00", align 1
@.str.17 = private unnamed_addr constant [5 x i8] c"mmap\00", align 1

; Function Attrs: nounwind uwtable
define internal i32 @xioctl(i32 noundef %0, i32 noundef %1, ptr noundef %2) #0 {
  %4 = alloca i32, align 4
  %5 = alloca i32, align 4
  %6 = alloca ptr, align 8
  %7 = alloca i32, align 4
  store i32 %0, ptr %4, align 4
  store i32 %1, ptr %5, align 4
  store ptr %2, ptr %6, align 8
  call void @llvm.lifetime.start.p0(i64 4, ptr %7) #8
  br label %8

8:                                                ; preds = %21, %3
  %9 = load i32, ptr %4, align 4
  %10 = load i32, ptr %5, align 4
  %11 = sext i32 %10 to i64
  %12 = load ptr, ptr %6, align 8
  %13 = call i32 (i32, i64, ...) @ioctl(i32 noundef %9, i64 noundef %11, ptr noundef %12) #8
  store i32 %13, ptr %7, align 4
  br label %14

14:                                               ; preds = %8
  %15 = load i32, ptr %7, align 4
  %16 = icmp eq i32 %15, -1
  br i1 %16, label %17, label %21

17:                                               ; preds = %14
  %18 = call ptr @__errno_location() #9
  %19 = load i32, ptr %18, align 4
  %20 = icmp eq i32 %19, 4
  br label %21

21:                                               ; preds = %17, %14
  %22 = phi i1 [ false, %14 ], [ %20, %17 ]
  br i1 %22, label %8, label %23, !llvm.loop !19

23:                                               ; preds = %21
  %24 = load i32, ptr %7, align 4
  call void @llvm.lifetime.end.p0(i64 4, ptr %7) #8
  ret i32 %24
}

; Function Attrs: nounwind uwtable
define internal zeroext i1 @AllocBufferMmap(ptr noundef %0) #0 {
  %2 = alloca i1, align 1
  %3 = alloca ptr, align 8
  %4 = alloca i32, align 4
  %5 = alloca i32, align 4
  %6 = alloca %struct.v4l2_buffer, align 8
  %7 = alloca i32, align 4
  store ptr %0, ptr %3, align 8
  call void @llvm.lifetime.start.p0(i64 4, ptr %4) #8
  %8 = load ptr, ptr %3, align 8
  %9 = getelementptr inbounds nuw %struct.SDL_Camera, ptr %8, i32 0, i32 30
  %10 = load ptr, ptr %9, align 8
  %11 = getelementptr inbounds nuw %struct.SDL_PrivateCameraData, ptr %10, i32 0, i32 0
  %12 = load i32, ptr %11, align 8
  store i32 %12, ptr %4, align 4
  call void @llvm.lifetime.start.p0(i64 4, ptr %5) #8
  store i32 0, ptr %5, align 4
  br label %13

13:                                               ; preds = %78, %1
  %14 = load i32, ptr %5, align 4
  %15 = load ptr, ptr %3, align 8
  %16 = getelementptr inbounds nuw %struct.SDL_Camera, ptr %15, i32 0, i32 30
  %17 = load ptr, ptr %16, align 8
  %18 = getelementptr inbounds nuw %struct.SDL_PrivateCameraData, ptr %17, i32 0, i32 2
  %19 = load i32, ptr %18, align 8
  %20 = icmp slt i32 %14, %19
  br i1 %20, label %21, label %81

21:                                               ; preds = %13
  call void @llvm.lifetime.start.p0(i64 88, ptr %6) #8
  call void @llvm.memset.p0.i64(ptr align 8 %6, i8 0, i64 88, i1 false)
  %22 = getelementptr inbounds nuw %struct.v4l2_buffer, ptr %6, i32 0, i32 1
  store i32 1, ptr %22, align 4
  %23 = getelementptr inbounds nuw %struct.v4l2_buffer, ptr %6, i32 0, i32 8
  store i32 1, ptr %23, align 4
  %24 = load i32, ptr %5, align 4
  %25 = getelementptr inbounds nuw %struct.v4l2_buffer, ptr %6, i32 0, i32 0
  store i32 %24, ptr %25, align 8
  %26 = load i32, ptr %4, align 4
  %27 = call i32 @xioctl(i32 noundef %26, i32 noundef -1067952631, ptr noundef %6)
  %28 = icmp eq i32 %27, -1
  br i1 %28, label %29, label %31

29:                                               ; preds = %21
  %30 = call zeroext i1 (ptr, ...) @SDL_SetError_REAL(ptr noundef @.str.16)
  store i1 %30, ptr %2, align 1
  store i32 1, ptr %7, align 4
  br label %75

31:                                               ; preds = %21
  %32 = getelementptr inbounds nuw %struct.v4l2_buffer, ptr %6, i32 0, i32 10
  %33 = load i32, ptr %32, align 8
  %34 = zext i32 %33 to i64
  %35 = load ptr, ptr %3, align 8
  %36 = getelementptr inbounds nuw %struct.SDL_Camera, ptr %35, i32 0, i32 30
  %37 = load ptr, ptr %36, align 8
  %38 = getelementptr inbounds nuw %struct.SDL_PrivateCameraData, ptr %37, i32 0, i32 3
  %39 = load ptr, ptr %38, align 8
  %40 = load i32, ptr %5, align 4
  %41 = sext i32 %40 to i64
  %42 = getelementptr inbounds %struct.buffer, ptr %39, i64 %41
  %43 = getelementptr inbounds nuw %struct.buffer, ptr %42, i32 0, i32 1
  store i64 %34, ptr %43, align 8
  %44 = getelementptr inbounds nuw %struct.v4l2_buffer, ptr %6, i32 0, i32 10
  %45 = load i32, ptr %44, align 8
  %46 = zext i32 %45 to i64
  %47 = load i32, ptr %4, align 4
  %48 = getelementptr inbounds nuw %struct.v4l2_buffer, ptr %6, i32 0, i32 9
  %49 = load i32, ptr %48, align 8
  %50 = zext i32 %49 to i64
  %51 = call ptr @mmap(ptr noundef null, i64 noundef %46, i32 noundef 3, i32 noundef 1, i32 noundef %47, i64 noundef %50) #8
  %52 = load ptr, ptr %3, align 8
  %53 = getelementptr inbounds nuw %struct.SDL_Camera, ptr %52, i32 0, i32 30
  %54 = load ptr, ptr %53, align 8
  %55 = getelementptr inbounds nuw %struct.SDL_PrivateCameraData, ptr %54, i32 0, i32 3
  %56 = load ptr, ptr %55, align 8
  %57 = load i32, ptr %5, align 4
  %58 = sext i32 %57 to i64
  %59 = getelementptr inbounds %struct.buffer, ptr %56, i64 %58
  %60 = getelementptr inbounds nuw %struct.buffer, ptr %59, i32 0, i32 0
  store ptr %51, ptr %60, align 8
  %61 = load ptr, ptr %3, align 8
  %62 = getelementptr inbounds nuw %struct.SDL_Camera, ptr %61, i32 0, i32 30
  %63 = load ptr, ptr %62, align 8
  %64 = getelementptr inbounds nuw %struct.SDL_PrivateCameraData, ptr %63, i32 0, i32 3
  %65 = load ptr, ptr %64, align 8
  %66 = load i32, ptr %5, align 4
  %67 = sext i32 %66 to i64
  %68 = getelementptr inbounds %struct.buffer, ptr %65, i64 %67
  %69 = getelementptr inbounds nuw %struct.buffer, ptr %68, i32 0, i32 0
  %70 = load ptr, ptr %69, align 8
  %71 = icmp eq ptr inttoptr (i64 -1 to ptr), %70
  br i1 %71, label %72, label %74

72:                                               ; preds = %31
  %73 = call zeroext i1 (ptr, ...) @SDL_SetError_REAL(ptr noundef @.str.17)
  store i1 %73, ptr %2, align 1
  store i32 1, ptr %7, align 4
  br label %75

74:                                               ; preds = %31
  store i32 0, ptr %7, align 4
  br label %75

75:                                               ; preds = %74, %72, %29
  call void @llvm.lifetime.end.p0(i64 88, ptr %6) #8
  %76 = load i32, ptr %7, align 4
  switch i32 %76, label %82 [
    i32 0, label %77
  ]

77:                                               ; preds = %75
  br label %78

78:                                               ; preds = %77
  %79 = load i32, ptr %5, align 4
  %80 = add nsw i32 %79, 1
  store i32 %80, ptr %5, align 4
  br label %13, !llvm.loop !20

81:                                               ; preds = %13
  store i1 true, ptr %2, align 1
  store i32 1, ptr %7, align 4
  br label %82

82:                                               ; preds = %81, %75
  call void @llvm.lifetime.end.p0(i64 4, ptr %5) #8
  call void @llvm.lifetime.end.p0(i64 4, ptr %4) #8
  %83 = load i1, ptr %2, align 1
  ret i1 %83
}