; Function Attrs: nounwind uwtable
define internal fastcc zeroext i1 @AllocBufferMmap(ptr noundef readonly captures(none) %0) unnamed_addr #1 {
  %2 = alloca %struct.v4l2_buffer, align 8
  %3 = getelementptr inbounds nuw i8, ptr %0, i64 464
  %4 = load ptr, ptr %3, align 8
  %5 = load i32, ptr %4, align 8
  %6 = getelementptr inbounds nuw i8, ptr %4, i64 8
  %7 = load i32, ptr %6, align 8
  %8 = icmp sgt i32 %7, 0
  br i1 %8, label %.lr.ph, label %.loopexit

.lr.ph:                                           ; preds = %1
  %9 = getelementptr inbounds nuw i8, ptr %2, i64 4
  %10 = getelementptr inbounds nuw i8, ptr %2, i64 60
  %11 = getelementptr inbounds nuw i8, ptr %2, i64 72
  %12 = getelementptr inbounds nuw i8, ptr %2, i64 64
  %13 = getelementptr inbounds nuw i8, ptr %2, i64 8
  br label %14

14:                                               ; preds = %.lr.ph, %45
  %indvars.iv = phi i64 [ 0, %.lr.ph ], [ %indvars.iv.next, %45 ]
  call void @llvm.lifetime.start.p0(i64 88, ptr nonnull %2) #11
  call void @llvm.memset.p0.i64(ptr noundef nonnull align 8 dereferenceable(80) %13, i8 0, i64 80, i1 false)
  store i32 1, ptr %9, align 4
  store i32 1, ptr %10, align 4
  %15 = trunc nuw nsw i64 %indvars.iv to i32
  store i32 %15, ptr %2, align 8
  br label %16

16:                                               ; preds = %19, %14
  %17 = call i32 (i32, i64, ...) @ioctl(i32 noundef %5, i64 noundef -1067952631, ptr noundef nonnull %2) #11
  %18 = icmp eq i32 %17, -1
  br i1 %18, label %19, label %xioctl.exit

19:                                               ; preds = %16
  %20 = tail call ptr @__errno_location() #12
  %21 = load i32, ptr %20, align 4
  %22 = icmp eq i32 %21, 4
  br i1 %22, label %16, label %.thread, !llvm.loop !5

xioctl.exit:                                      ; preds = %16
  %23 = load i32, ptr %11, align 8
  %24 = zext i32 %23 to i64
  %25 = load ptr, ptr %3, align 8
  %26 = getelementptr inbounds nuw i8, ptr %25, i64 16
  %27 = load ptr, ptr %26, align 8
  %28 = getelementptr inbounds nuw %struct.buffer, ptr %27, i64 %indvars.iv, i32 1
  store i64 %24, ptr %28, align 8
  %29 = load i32, ptr %11, align 8
  %30 = zext i32 %29 to i64
  %31 = load i32, ptr %12, align 8
  %32 = zext i32 %31 to i64
  %33 = call ptr @mmap(ptr noundef null, i64 noundef %30, i32 noundef 3, i32 noundef 1, i32 noundef %5, i64 noundef %32) #11
  %34 = load ptr, ptr %3, align 8
  %35 = getelementptr inbounds nuw i8, ptr %34, i64 16
  %36 = load ptr, ptr %35, align 8
  %37 = getelementptr inbounds nuw %struct.buffer, ptr %36, i64 %indvars.iv
  store ptr %33, ptr %37, align 8
  %38 = load ptr, ptr %3, align 8
  %39 = getelementptr inbounds nuw i8, ptr %38, i64 16
  %40 = load ptr, ptr %39, align 8
  %41 = getelementptr inbounds nuw %struct.buffer, ptr %40, i64 %indvars.iv
  %42 = load ptr, ptr %41, align 8
  %43 = icmp eq ptr %42, inttoptr (i64 -1 to ptr)
  br i1 %43, label %.thread, label %45

.thread:                                          ; preds = %xioctl.exit, %19
  %.str.16.sink = phi ptr [ @.str.16, %19 ], [ @.str.17, %xioctl.exit ]
  %44 = call zeroext i1 (ptr, ...) @SDL_SetError_REAL(ptr noundef nonnull %.str.16.sink) #11
  call void @llvm.lifetime.end.p0(i64 88, ptr nonnull %2) #11
  br label %.loopexit

45:                                               ; preds = %xioctl.exit
  call void @llvm.lifetime.end.p0(i64 88, ptr nonnull %2) #11
  %indvars.iv.next = add nuw nsw i64 %indvars.iv, 1
  %46 = getelementptr inbounds nuw i8, ptr %38, i64 8
  %47 = load i32, ptr %46, align 8
  %48 = sext i32 %47 to i64
  %49 = icmp slt i64 %indvars.iv.next, %48
  br i1 %49, label %14, label %.loopexit, !llvm.loop !17

.loopexit:                                        ; preds = %45, %1, %.thread
  %.2 = phi i1 [ %44, %.thread ], [ true, %1 ], [ true, %45 ]
  ret i1 %.2
}